target datalayout = "e-m:e-p270:32:32-p271:32:32-p272:64:64-i64:64-i128:128-f80:128-n8:16:32:64-S128"
target triple = "x86_64-unknown-linux-gnu"

%"class.icu_75::UMutex" = type { [40 x i8], %"struct.std::atomic", ptr }
%"struct.std::atomic" = type { %"struct.std::__atomic_base" }
%"struct.std::__atomic_base" = type { ptr }
%"class.icu_75::TimeZoneGenericNames" = type { ptr, ptr }
%"struct.icu_75::TZGNCoreRef" = type { ptr, i32, double }

@_ZN6icu_75L9gTZGNLockE = internal global %"class.icu_75::UMutex" zeroinitializer, align 8

; Function Attrs: mustprogress nounwind uwtable
define void @_ZN6icu_7520TimeZoneGenericNamesD2Ev(ptr noundef nonnull align 8 dereferenceable(16) %this) unnamed_addr #0 align 2 personality ptr @__gxx_personality_v0 {
entry:
  %this.addr = alloca ptr, align 8
  store ptr %this, ptr %this.addr, align 8
  %this1 = load ptr, ptr %this.addr, align 8
  store ptr getelementptr inbounds ({ [7 x ptr] }, ptr @_ZTVN6icu_7520TimeZoneGenericNamesE, i32 0, i32 0, i32 2), ptr %this1, align 8
  invoke void @umtx_lock_75(ptr noundef @_ZN6icu_75L9gTZGNLockE)
          to label %invoke.cont unwind label %terminate.lpad

invoke.cont:                                      ; preds = %entry
  %fRef = getelementptr inbounds %"class.icu_75::TimeZoneGenericNames", ptr %this1, i32 0, i32 1
  %0 = load ptr, ptr %fRef, align 8
  %refCount = getelementptr inbounds %"struct.icu_75::TZGNCoreRef", ptr %0, i32 0, i32 1
  %1 = load i32, ptr %refCount, align 8
  %dec = add nsw i32 %1, -1
  store i32 %dec, ptr %refCount, align 8
  invoke void @umtx_unlock_75(ptr noundef @_ZN6icu_75L9gTZGNLockE)
          to label %invoke.cont2 unwind label %terminate.lpad

invoke.cont2:                                     ; preds = %invoke.cont
  ret void

terminate.lpad:                                   ; preds = %invoke.cont, %entry
  %2 = landingpad { ptr, i32 }
          catch ptr null
  %3 = extractvalue { ptr, i32 } %2, 0
  call void @__clang_call_terminate(ptr %3) #11
  unreachable
}