; Function Attrs: mustprogress nounwind uwtable
define void @_ZN6icu_7520TimeZoneGenericNamesD2Ev(ptr nocapture noundef nonnull align 8 dereferenceable(16) %this) unnamed_addr #0 align 2 personality ptr @__gxx_personality_v0 {
entry:
  store ptr getelementptr inbounds ({ [7 x ptr] }, ptr @_ZTVN6icu_7520TimeZoneGenericNamesE, i64 0, i32 0, i64 2), ptr %this, align 8
  invoke void @umtx_lock_75(ptr noundef nonnull @_ZN6icu_75L9gTZGNLockE)
          to label %invoke.cont unwind label %terminate.lpad

invoke.cont:                                      ; preds = %entry
  %fRef = getelementptr inbounds i8, ptr %this, i64 8
  %0 = load ptr, ptr %fRef, align 8
  %refCount = getelementptr inbounds i8, ptr %0, i64 8
  %1 = load i32, ptr %refCount, align 8
  %dec = add nsw i32 %1, -1
  store i32 %dec, ptr %refCount, align 8
  invoke void @umtx_unlock_75(ptr noundef nonnull @_ZN6icu_75L9gTZGNLockE)
          to label %invoke.cont2 unwind label %terminate.lpad

invoke.cont2:                                     ; preds = %invoke.cont
  ret void

terminate.lpad:                                   ; preds = %invoke.cont, %entry
  %2 = landingpad { ptr, i32 }
          catch ptr null
  %3 = extractvalue { ptr, i32 } %2, 0
  tail call void @__clang_call_terminate(ptr %3) #19
  unreachable
}